target datalayout = "e-m:e-p270:32:32-p271:32:32-p272:64:64-i64:64-i128:128-f80:128-n8:16:32:64-S128"
target triple = "x86_64-pc-linux-gnu"

; Function Attrs: mustprogress nounwind uwtable
define noundef i32 @_Z13lodepng_crc32PKhm(ptr noundef %0, i64 noundef %1) #3 {
  %3 = alloca ptr, align 8
  %4 = alloca i64, align 8
  %5 = alloca i32, align 4
  store ptr %0, ptr %3, align 8, !tbaa !11
  store i64 %1, ptr %4, align 8, !tbaa !17
  call void @llvm.lifetime.start.p0(i64 4, ptr %5) #17
  store i32 -1, ptr %5, align 4, !tbaa !15
  br label %6

6:                                                ; preds = %9, %2
  %7 = load i64, ptr %4, align 8, !tbaa !17
  %8 = icmp uge i64 %7, 8
  br i1 %8, label %9, label %88

9:                                                ; preds = %6
  %10 = load ptr, ptr %3, align 8, !tbaa !11
  %11 = getelementptr inbounds i8, ptr %10, i64 0
  %12 = load i8, ptr %11, align 1, !tbaa !45
  %13 = zext i8 %12 to i32
  %14 = load i32, ptr %5, align 4, !tbaa !15
  %15 = and i32 %14, 255
  %16 = xor i32 %13, %15
  %17 = zext i32 %16 to i64
  %18 = getelementptr inbounds nuw [256 x i32], ptr @_ZL20lodepng_crc32_table7, i64 0, i64 %17
  %19 = load i32, ptr %18, align 4, !tbaa !15
  %20 = load ptr, ptr %3, align 8, !tbaa !11
  %21 = getelementptr inbounds i8, ptr %20, i64 1
  %22 = load i8, ptr %21, align 1, !tbaa !45
  %23 = zext i8 %22 to i32
  %24 = load i32, ptr %5, align 4, !tbaa !15
  %25 = lshr i32 %24, 8
  %26 = and i32 %25, 255
  %27 = xor i32 %23, %26
  %28 = zext i32 %27 to i64
  %29 = getelementptr inbounds nuw [256 x i32], ptr @_ZL20lodepng_crc32_table6, i64 0, i64 %28
  %30 = load i32, ptr %29, align 4, !tbaa !15
  %31 = xor i32 %19, %30
  %32 = load ptr, ptr %3, align 8, !tbaa !11
  %33 = getelementptr inbounds i8, ptr %32, i64 2
  %34 = load i8, ptr %33, align 1, !tbaa !45
  %35 = zext i8 %34 to i32
  %36 = load i32, ptr %5, align 4, !tbaa !15
  %37 = lshr i32 %36, 16
  %38 = and i32 %37, 255
  %39 = xor i32 %35, %38
  %40 = zext i32 %39 to i64
  %41 = getelementptr inbounds nuw [256 x i32], ptr @_ZL20lodepng_crc32_table5, i64 0, i64 %40
  %42 = load i32, ptr %41, align 4, !tbaa !15
  %43 = xor i32 %31, %42
  %44 = load ptr, ptr %3, align 8, !tbaa !11
  %45 = getelementptr inbounds i8, ptr %44, i64 3
  %46 = load i8, ptr %45, align 1, !tbaa !45
  %47 = zext i8 %46 to i32
  %48 = load i32, ptr %5, align 4, !tbaa !15
  %49 = lshr i32 %48, 24
  %50 = and i32 %49, 255
  %51 = xor i32 %47, %50
  %52 = zext i32 %51 to i64
  %53 = getelementptr inbounds nuw [256 x i32], ptr @_ZL20lodepng_crc32_table4, i64 0, i64 %52
  %54 = load i32, ptr %53, align 4, !tbaa !15
  %55 = xor i32 %43, %54
  %56 = load ptr, ptr %3, align 8, !tbaa !11
  %57 = getelementptr inbounds i8, ptr %56, i64 4
  %58 = load i8, ptr %57, align 1, !tbaa !45
  %59 = zext i8 %58 to i64
  %60 = getelementptr inbounds nuw [256 x i32], ptr @_ZL20lodepng_crc32_table3, i64 0, i64 %59
  %61 = load i32, ptr %60, align 4, !tbaa !15
  %62 = xor i32 %55, %61
  %63 = load ptr, ptr %3, align 8, !tbaa !11
  %64 = getelementptr inbounds i8, ptr %63, i64 5
  %65 = load i8, ptr %64, align 1, !tbaa !45
  %66 = zext i8 %65 to i64
  %67 = getelementptr inbounds nuw [256 x i32], ptr @_ZL20lodepng_crc32_table2, i64 0, i64 %66
  %68 = load i32, ptr %67, align 4, !tbaa !15
  %69 = xor i32 %62, %68
  %70 = load ptr, ptr %3, align 8, !tbaa !11
  %71 = getelementptr inbounds i8, ptr %70, i64 6
  %72 = load i8, ptr %71, align 1, !tbaa !45
  %73 = zext i8 %72 to i64
  %74 = getelementptr inbounds nuw [256 x i32], ptr @_ZL20lodepng_crc32_table1, i64 0, i64 %73
  %75 = load i32, ptr %74, align 4, !tbaa !15
  %76 = xor i32 %69, %75
  %77 = load ptr, ptr %3, align 8, !tbaa !11
  %78 = getelementptr inbounds i8, ptr %77, i64 7
  %79 = load i8, ptr %78, align 1, !tbaa !45
  %80 = zext i8 %79 to i64
  %81 = getelementptr inbounds nuw [256 x i32], ptr @_ZL20lodepng_crc32_table0, i64 0, i64 %80
  %82 = load i32, ptr %81, align 4, !tbaa !15
  %83 = xor i32 %76, %82
  store i32 %83, ptr %5, align 4, !tbaa !15
  %84 = load ptr, ptr %3, align 8, !tbaa !11
  %85 = getelementptr inbounds i8, ptr %84, i64 8
  store ptr %85, ptr %3, align 8, !tbaa !11
  %86 = load i64, ptr %4, align 8, !tbaa !17
  %87 = sub i64 %86, 8
  store i64 %87, ptr %4, align 8, !tbaa !17
  br label %6, !llvm.loop !92

88:                                               ; preds = %6
  br label %89

89:                                               ; preds = %93, %88
  %90 = load i64, ptr %4, align 8, !tbaa !17
  %91 = add i64 %90, -1
  store i64 %91, ptr %4, align 8, !tbaa !17
  %92 = icmp ne i64 %90, 0
  br i1 %92, label %93, label %107

93:                                               ; preds = %89
  %94 = load i32, ptr %5, align 4, !tbaa !15
  %95 = load ptr, ptr %3, align 8, !tbaa !11
  %96 = getelementptr inbounds nuw i8, ptr %95, i32 1
  store ptr %96, ptr %3, align 8, !tbaa !11
  %97 = load i8, ptr %95, align 1, !tbaa !45
  %98 = zext i8 %97 to i32
  %99 = xor i32 %94, %98
  %100 = and i32 %99, 255
  %101 = zext i32 %100 to i64
  %102 = getelementptr inbounds nuw [256 x i32], ptr @_ZL20lodepng_crc32_table0, i64 0, i64 %101
  %103 = load i32, ptr %102, align 4, !tbaa !15
  %104 = load i32, ptr %5, align 4, !tbaa !15
  %105 = lshr i32 %104, 8
  %106 = xor i32 %103, %105
  store i32 %106, ptr %5, align 4, !tbaa !15
  br label %89, !llvm.loop !93

107:                                              ; preds = %89
  %108 = load i32, ptr %5, align 4, !tbaa !15
  %109 = xor i32 %108, -1
  call void @llvm.lifetime.end.p0(i64 4, ptr %5) #17
  ret i32 %109
}

; Function Attrs: mustprogress nounwind uwtable
define internal noundef i32 @_ZL20lodepng_read32bitIntPKh(ptr noundef %0) #3 {
  %2 = alloca ptr, align 8
  store ptr %0, ptr %2, align 8, !tbaa !11
  %3 = load ptr, ptr %2, align 8, !tbaa !11
  %4 = getelementptr inbounds i8, ptr %3, i64 0
  %5 = load i8, ptr %4, align 1, !tbaa !45
  %6 = zext i8 %5 to i32
  %7 = shl i32 %6, 24
  %8 = load ptr, ptr %2, align 8, !tbaa !11
  %9 = getelementptr inbounds i8, ptr %8, i64 1
  %10 = load i8, ptr %9, align 1, !tbaa !45
  %11 = zext i8 %10 to i32
  %12 = shl i32 %11, 16
  %13 = or i32 %7, %12
  %14 = load ptr, ptr %2, align 8, !tbaa !11
  %15 = getelementptr inbounds i8, ptr %14, i64 2
  %16 = load i8, ptr %15, align 1, !tbaa !45
  %17 = zext i8 %16 to i32
  %18 = shl i32 %17, 8
  %19 = or i32 %13, %18
  %20 = load ptr, ptr %2, align 8, !tbaa !11
  %21 = getelementptr inbounds i8, ptr %20, i64 3
  %22 = load i8, ptr %21, align 1, !tbaa !45
  %23 = zext i8 %22 to i32
  %24 = or i32 %19, %23
  ret i32 %24
}

; Function Attrs: mustprogress uwtable
define noundef i32 @_Z20lodepng_chunk_lengthPKh(ptr noundef %0) #0 {
  %2 = alloca ptr, align 8
  store ptr %0, ptr %2, align 8, !tbaa !11
  %3 = load ptr, ptr %2, align 8, !tbaa !11
  %4 = call noundef i32 @_ZL20lodepng_read32bitIntPKh(ptr noundef %3)
  ret i32 %4
}

; Function Attrs: mustprogress uwtable
define noundef i32 @_Z23lodepng_chunk_check_crcPKh(ptr noundef %0) #0 {
  %2 = alloca i32, align 4
  %3 = alloca ptr, align 8
  %4 = alloca i32, align 4
  %5 = alloca i32, align 4
  %6 = alloca i32, align 4
  %7 = alloca i32, align 4
  store ptr %0, ptr %3, align 8, !tbaa !11
  call void @llvm.lifetime.start.p0(i64 4, ptr %4) #17
  %8 = load ptr, ptr %3, align 8, !tbaa !11
  %9 = call noundef i32 @_Z20lodepng_chunk_lengthPKh(ptr noundef %8)
  store i32 %9, ptr %4, align 4, !tbaa !15
  call void @llvm.lifetime.start.p0(i64 4, ptr %5) #17
  %10 = load ptr, ptr %3, align 8, !tbaa !11
  %11 = load i32, ptr %4, align 4, !tbaa !15
  %12 = add i32 %11, 8
  %13 = zext i32 %12 to i64
  %14 = getelementptr inbounds nuw i8, ptr %10, i64 %13
  %15 = call noundef i32 @_ZL20lodepng_read32bitIntPKh(ptr noundef %14)
  store i32 %15, ptr %5, align 4, !tbaa !15
  call void @llvm.lifetime.start.p0(i64 4, ptr %6) #17
  %16 = load ptr, ptr %3, align 8, !tbaa !11
  %17 = getelementptr inbounds i8, ptr %16, i64 4
  %18 = load i32, ptr %4, align 4, !tbaa !15
  %19 = add i32 %18, 4
  %20 = zext i32 %19 to i64
  %21 = call noundef i32 @_Z13lodepng_crc32PKhm(ptr noundef %17, i64 noundef %20)
  store i32 %21, ptr %6, align 4, !tbaa !15
  %22 = load i32, ptr %5, align 4, !tbaa !15
  %23 = load i32, ptr %6, align 4, !tbaa !15
  %24 = icmp ne i32 %22, %23
  br i1 %24, label %25, label %26

25:                                               ; preds = %1
  store i32 1, ptr %2, align 4
  store i32 1, ptr %7, align 4
  br label %27

26:                                               ; preds = %1
  store i32 0, ptr %2, align 4
  store i32 1, ptr %7, align 4
  br label %27

27:                                               ; preds = %26, %25
  call void @llvm.lifetime.end.p0(i64 4, ptr %6) #17
  call void @llvm.lifetime.end.p0(i64 4, ptr %5) #17
  call void @llvm.lifetime.end.p0(i64 4, ptr %4) #17
  %28 = load i32, ptr %2, align 4
  ret i32 %28
}