; Function Attrs: mustprogress nofree norecurse nosync nounwind willreturn memory(argmem: read) uwtable
define noundef range(i32 0, 2) i32 @_Z23lodepng_chunk_check_crcPKh(ptr noundef readonly captures(none) %0) local_unnamed_addr #7 {
  %2 = load i8, ptr %0, align 1, !tbaa !18
  %3 = zext i8 %2 to i32
  %4 = shl nuw i32 %3, 24
  %5 = getelementptr inbounds nuw i8, ptr %0, i64 1
  %6 = load i8, ptr %5, align 1, !tbaa !18
  %7 = zext i8 %6 to i32
  %8 = shl nuw nsw i32 %7, 16
  %9 = or disjoint i32 %8, %4
  %10 = getelementptr inbounds nuw i8, ptr %0, i64 2
  %11 = load i8, ptr %10, align 1, !tbaa !18
  %12 = zext i8 %11 to i32
  %13 = shl nuw nsw i32 %12, 8
  %14 = or disjoint i32 %9, %13
  %15 = getelementptr inbounds nuw i8, ptr %0, i64 3
  %16 = load i8, ptr %15, align 1, !tbaa !18
  %17 = zext i8 %16 to i32
  %18 = or disjoint i32 %14, %17
  %19 = add i32 %18, 8
  %20 = zext i32 %19 to i64
  %21 = getelementptr inbounds nuw i8, ptr %0, i64 %20
  %22 = load i8, ptr %21, align 1, !tbaa !18
  %23 = getelementptr inbounds nuw i8, ptr %21, i64 1
  %24 = load i8, ptr %23, align 1, !tbaa !18
  %25 = getelementptr inbounds nuw i8, ptr %21, i64 2
  %26 = load i8, ptr %25, align 1, !tbaa !18
  %27 = getelementptr inbounds nuw i8, ptr %21, i64 3
  %28 = load i8, ptr %27, align 1, !tbaa !18
  %29 = getelementptr inbounds nuw i8, ptr %0, i64 4
  %30 = add i32 %18, 4
  %31 = zext i32 %30 to i64
  %32 = icmp ugt i32 %30, 7
  br i1 %32, label %.lr.ph.i, label %.preheader.i

.preheader.i:                                     ; preds = %.lr.ph.i, %1
  %.021.lcssa.i = phi ptr [ %29, %1 ], [ %93, %.lr.ph.i ]
  %.019.lcssa.i = phi i64 [ %31, %1 ], [ %94, %.lr.ph.i ]
  %.0.lcssa.i = phi i32 [ -1, %1 ], [ %92, %.lr.ph.i ]
  %.not28.i = icmp eq i64 %.019.lcssa.i, 0
  br i1 %.not28.i, label %_Z13lodepng_crc32PKhm.exit, label %.lr.ph32.i

.lr.ph.i:                                         ; preds = %1, %.lr.ph.i
  %.025.i = phi i32 [ %92, %.lr.ph.i ], [ -1, %1 ]
  %.01924.i = phi i64 [ %94, %.lr.ph.i ], [ %31, %1 ]
  %.02123.i = phi ptr [ %93, %.lr.ph.i ], [ %29, %1 ]
  %33 = load i8, ptr %.02123.i, align 1, !tbaa !18
  %34 = zext i8 %33 to i32
  %35 = and i32 %.025.i, 255
  %36 = xor i32 %35, %34
  %37 = zext nneg i32 %36 to i64
  %38 = getelementptr inbounds nuw [256 x i32], ptr @_ZL20lodepng_crc32_table7, i64 0, i64 %37
  %39 = load i32, ptr %38, align 4, !tbaa !10
  %40 = getelementptr inbounds nuw i8, ptr %.02123.i, i64 1
  %41 = load i8, ptr %40, align 1, !tbaa !18
  %42 = zext i8 %41 to i32
  %43 = lshr i32 %.025.i, 8
  %44 = and i32 %43, 255
  %45 = xor i32 %44, %42
  %46 = zext nneg i32 %45 to i64
  %47 = getelementptr inbounds nuw [256 x i32], ptr @_ZL20lodepng_crc32_table6, i64 0, i64 %46
  %48 = load i32, ptr %47, align 4, !tbaa !10
  %49 = xor i32 %48, %39
  %50 = getelementptr inbounds nuw i8, ptr %.02123.i, i64 2
  %51 = load i8, ptr %50, align 1, !tbaa !18
  %52 = zext i8 %51 to i32
  %53 = lshr i32 %.025.i, 16
  %54 = and i32 %53, 255
  %55 = xor i32 %54, %52
  %56 = zext nneg i32 %55 to i64
  %57 = getelementptr inbounds nuw [256 x i32], ptr @_ZL20lodepng_crc32_table5, i64 0, i64 %56
  %58 = load i32, ptr %57, align 4, !tbaa !10
  %59 = xor i32 %49, %58
  %60 = getelementptr inbounds nuw i8, ptr %.02123.i, i64 3
  %61 = load i8, ptr %60, align 1, !tbaa !18
  %62 = zext i8 %61 to i32
  %63 = lshr i32 %.025.i, 24
  %64 = xor i32 %63, %62
  %65 = zext nneg i32 %64 to i64
  %66 = getelementptr inbounds nuw [256 x i32], ptr @_ZL20lodepng_crc32_table4, i64 0, i64 %65
  %67 = load i32, ptr %66, align 4, !tbaa !10
  %68 = xor i32 %59, %67
  %69 = getelementptr inbounds nuw i8, ptr %.02123.i, i64 4
  %70 = load i8, ptr %69, align 1, !tbaa !18
  %71 = zext i8 %70 to i64
  %72 = getelementptr inbounds nuw [256 x i32], ptr @_ZL20lodepng_crc32_table3, i64 0, i64 %71
  %73 = load i32, ptr %72, align 4, !tbaa !10
  %74 = xor i32 %68, %73
  %75 = getelementptr inbounds nuw i8, ptr %.02123.i, i64 5
  %76 = load i8, ptr %75, align 1, !tbaa !18
  %77 = zext i8 %76 to i64
  %78 = getelementptr inbounds nuw [256 x i32], ptr @_ZL20lodepng_crc32_table2, i64 0, i64 %77
  %79 = load i32, ptr %78, align 4, !tbaa !10
  %80 = xor i32 %74, %79
  %81 = getelementptr inbounds nuw i8, ptr %.02123.i, i64 6
  %82 = load i8, ptr %81, align 1, !tbaa !18
  %83 = zext i8 %82 to i64
  %84 = getelementptr inbounds nuw [256 x i32], ptr @_ZL20lodepng_crc32_table1, i64 0, i64 %83
  %85 = load i32, ptr %84, align 4, !tbaa !10
  %86 = xor i32 %80, %85
  %87 = getelementptr inbounds nuw i8, ptr %.02123.i, i64 7
  %88 = load i8, ptr %87, align 1, !tbaa !18
  %89 = zext i8 %88 to i64
  %90 = getelementptr inbounds nuw [256 x i32], ptr @_ZL20lodepng_crc32_table0, i64 0, i64 %89
  %91 = load i32, ptr %90, align 4, !tbaa !10
  %92 = xor i32 %86, %91
  %93 = getelementptr inbounds nuw i8, ptr %.02123.i, i64 8
  %94 = add i64 %.01924.i, -8
  %95 = icmp ugt i64 %94, 7
  br i1 %95, label %.lr.ph.i, label %.preheader.i, !llvm.loop !167

.lr.ph32.i:                                       ; preds = %.preheader.i, %.lr.ph32.i
  %.131.i = phi i32 [ %103, %.lr.ph32.i ], [ %.0.lcssa.i, %.preheader.i ]
  %.12030.i = phi i64 [ %96, %.lr.ph32.i ], [ %.019.lcssa.i, %.preheader.i ]
  %.12229.i = phi ptr [ %97, %.lr.ph32.i ], [ %.021.lcssa.i, %.preheader.i ]
  %96 = add i64 %.12030.i, -1
  %97 = getelementptr inbounds nuw i8, ptr %.12229.i, i64 1
  %98 = load i8, ptr %.12229.i, align 1, !tbaa !18
  %.1.tr.i = trunc i32 %.131.i to i8
  %.narrow.i = xor i8 %98, %.1.tr.i
  %99 = zext i8 %.narrow.i to i64
  %100 = getelementptr inbounds nuw [256 x i32], ptr @_ZL20lodepng_crc32_table0, i64 0, i64 %99
  %101 = load i32, ptr %100, align 4, !tbaa !10
  %102 = lshr i32 %.131.i, 8
  %103 = xor i32 %101, %102
  %.not.i = icmp eq i64 %96, 0
  br i1 %.not.i, label %_Z13lodepng_crc32PKhm.exit, label %.lr.ph32.i, !llvm.loop !168

_Z13lodepng_crc32PKhm.exit:                       ; preds = %.lr.ph32.i, %.preheader.i
  %.1.lcssa.i = phi i32 [ %.0.lcssa.i, %.preheader.i ], [ %103, %.lr.ph32.i ]
  %104 = zext i8 %24 to i32
  %105 = shl nuw nsw i32 %104, 16
  %106 = zext i8 %22 to i32
  %107 = shl nuw i32 %106, 24
  %108 = or disjoint i32 %105, %107
  %109 = zext i8 %26 to i32
  %110 = shl nuw nsw i32 %109, 8
  %111 = or disjoint i32 %108, %110
  %112 = zext i8 %28 to i32
  %113 = or disjoint i32 %111, %112
  %114 = xor i32 %.1.lcssa.i, %113
  %.not = icmp ne i32 %114, -1
  %. = zext i1 %.not to i32
  ret i32 %.
}